; Function Attrs: cold nounwind optsize uwtable
define internal range(i32 -12, 1) i32 @tgv_decode_init(ptr noundef %0) #0 {
  %2 = getelementptr inbounds nuw i8, ptr %0, i64 32
  %3 = load ptr, ptr %2, align 8, !tbaa !4
  store ptr %0, ptr %3, align 8, !tbaa !27
  %4 = getelementptr inbounds nuw i8, ptr %0, i64 100
  store i32 15, ptr %4, align 4, !tbaa !31
  %.sroa.2.0..sroa_idx = getelementptr inbounds nuw i8, ptr %0, i64 104
  store i32 1, ptr %.sroa.2.0..sroa_idx, align 4, !tbaa !31
  %5 = getelementptr inbounds nuw i8, ptr %0, i64 136
  store i32 11, ptr %5, align 8, !tbaa !32
  %6 = tail call ptr @av_frame_alloc() #6
  %7 = getelementptr inbounds nuw i8, ptr %3, i64 8
  store ptr %6, ptr %7, align 8, !tbaa !33
  %.not = icmp eq ptr %6, null
  %. = select i1 %.not, i32 -12, i32 0
  ret i32 %.
}